; Function Attrs: mustprogress uwtable
define hidden void @_ZNK8facebook6hermes7tracing10SynthTrace17HasPropertyRecord14toJSONInternalERN6hermes11JSONEmitterE(ptr noundef nonnull align 8 dereferenceable(40) %this, ptr noundef nonnull align 8 dereferenceable(72) %json) unnamed_addr #1 align 2 personality ptr @__gxx_personality_v0 {
entry:
  %ref.tmp = alloca %"class.std::__cxx11::basic_string", align 8
  tail call void @_ZNK8facebook6hermes7tracing10SynthTrace6Record14toJSONInternalERN6hermes11JSONEmitterE(ptr noundef nonnull align 8 dereferenceable(16) %this, ptr noundef nonnull align 8 dereferenceable(72) %json)
  %objID_ = getelementptr inbounds i8, ptr %this, i64 16
  tail call void @_ZN6hermes11JSONEmitter7emitKeyEN4llvh9StringRefE(ptr noundef nonnull align 8 dereferenceable(72) %json, ptr nonnull @.str.53, i64 5)
  %0 = load i64, ptr %objID_, align 8
  tail call void @_ZN6hermes11JSONEmitter9emitValueEm(ptr noundef nonnull align 8 dereferenceable(72) %json, i64 noundef %0)
  %propID_ = getelementptr inbounds i8, ptr %this, i64 24
  %agg.tmp3.sroa.0.0.copyload = load i32, ptr %propID_, align 8
  %agg.tmp3.sroa.21.0.propID_.sroa_idx = getelementptr inbounds i8, ptr %this, i64 32
  %agg.tmp3.sroa.21.0.copyload = load i64, ptr %agg.tmp3.sroa.21.0.propID_.sroa_idx, align 8
  call void @_ZN8facebook6hermes7tracing10SynthTrace6encodeB5cxx11ENS2_10TraceValueE(ptr nonnull sret(%"class.std::__cxx11::basic_string") align 8 %ref.tmp, i32 %agg.tmp3.sroa.0.0.copyload, i64 %agg.tmp3.sroa.21.0.copyload)
  invoke void @_ZN6hermes11JSONEmitter7emitKeyEN4llvh9StringRefE(ptr noundef nonnull align 8 dereferenceable(72) %json, ptr nonnull @.str.63, i64 6)
          to label %.noexc unwind label %lpad

.noexc:                                           ; preds = %entry
  %call.i.i = call noundef ptr @_ZNKSt7__cxx1112basic_stringIcSt11char_traitsIcESaIcEE4dataEv(ptr noundef nonnull align 8 dereferenceable(32) %ref.tmp) #23
  %call2.i.i = call noundef i64 @_ZNKSt7__cxx1112basic_stringIcSt11char_traitsIcESaIcEE6lengthEv(ptr noundef nonnull align 8 dereferenceable(32) %ref.tmp) #23
  invoke void @_ZN6hermes11JSONEmitter9emitValueEN4llvh9StringRefE(ptr noundef nonnull align 8 dereferenceable(72) %json, ptr %call.i.i, i64 %call2.i.i)
          to label %invoke.cont unwind label %lpad

invoke.cont:                                      ; preds = %.noexc
  call void @_ZNSt7__cxx1112basic_stringIcSt11char_traitsIcESaIcEED1Ev(ptr noundef nonnull align 8 dereferenceable(32) %ref.tmp) #23
  ret void

lpad:                                             ; preds = %.noexc, %entry
  %1 = landingpad { ptr, i32 }
          cleanup
  call void @_ZNSt7__cxx1112basic_stringIcSt11char_traitsIcESaIcEED1Ev(ptr noundef nonnull align 8 dereferenceable(32) %ref.tmp) #23
  resume { ptr, i32 } %1
}